; Function Attrs: nounwind uwtable
define void @validateOneQubitKrausMap(ptr noundef readonly byval(%struct.Qureg) align 8 captures(none) %0, ptr noundef readonly captures(none) %1, i32 noundef %2, ptr noundef %3) local_unnamed_addr #3 {
  %.sroa.3.0..sroa_idx = getelementptr inbounds nuw i8, ptr %0, i64 16
  %.sroa.3.0.copyload = load i64, ptr %.sroa.3.0..sroa_idx, align 8
  %5 = add i32 %2, -5
  %6 = icmp ult i32 %5, -4
  br i1 %6, label %7, label %QuESTAssert.exit.i

7:                                                ; preds = %4
  tail call void @invalidQuESTInputError(ptr noundef nonnull @.str.51, ptr noundef %3)
  br label %QuESTAssert.exit.i

QuESTAssert.exit.i:                               ; preds = %7, %4
  %.not.i8.i = icmp slt i64 %.sroa.3.0.copyload, 4
  br i1 %.not.i8.i, label %8, label %validateOneQubitKrausMapDimensions.exit

8:                                                ; preds = %QuESTAssert.exit.i
  tail call void @invalidQuESTInputError(ptr noundef nonnull @.str.48, ptr noundef %3)
  br label %validateOneQubitKrausMapDimensions.exit

validateOneQubitKrausMapDimensions.exit:          ; preds = %QuESTAssert.exit.i, %8
  %9 = icmp sgt i32 %2, 0
  br i1 %9, label %.preheader69.us.preheader.i, label %.loopexit

.preheader69.us.preheader.i:                      ; preds = %validateOneQubitKrausMapDimensions.exit
  %wide.trip.count.i = zext nneg i32 %2 to i64
  br label %.preheader69.us.i

.preheader69.us.i:                                ; preds = %.critedge.split.us.us.i, %.preheader69.us.preheader.i
  %.not85.i = phi i1 [ true, %.preheader69.us.preheader.i ], [ false, %.critedge.split.us.us.i ]
  %indvars.iv97.i = phi i64 [ 0, %.preheader69.us.preheader.i ], [ 1, %.critedge.split.us.us.i ]
  br label %.preheader68.us.us.i

.preheader68.us.us.i:                             ; preds = %30, %.preheader69.us.i
  %.not84.i = phi i1 [ false, %30 ], [ true, %.preheader69.us.i ]
  %indvars.iv94.i = phi i64 [ 1, %30 ], [ 0, %.preheader69.us.i ]
  br label %.preheader.us.us.i

10:                                               ; preds = %11
  %indvars.iv.next92.i = add nuw nsw i64 %indvars.iv91.i, 1
  %exitcond.not.i = icmp eq i64 %indvars.iv.next92.i, %wide.trip.count.i
  br i1 %exitcond.not.i, label %._crit_edge.us.us.i, label %.preheader.us.us.i

11:                                               ; preds = %.preheader.us.us.i, %11
  %12 = phi i1 [ true, %.preheader.us.us.i ], [ false, %11 ]
  %indvars.iv.i = phi i64 [ 0, %.preheader.us.us.i ], [ 1, %11 ]
  %.16173.us.us.i = phi double [ %.06076.us.us.i, %.preheader.us.us.i ], [ %27, %11 ]
  %.16372.us.us.i = phi double [ %.06275.us.us.i, %.preheader.us.us.i ], [ %23, %11 ]
  %13 = getelementptr inbounds nuw [2 x [2 x double]], ptr %28, i64 0, i64 %indvars.iv.i, i64 %indvars.iv97.i
  %14 = load double, ptr %13, align 8, !tbaa !9
  %15 = getelementptr inbounds nuw [2 x [2 x double]], ptr %28, i64 0, i64 %indvars.iv.i, i64 %indvars.iv94.i
  %16 = load double, ptr %15, align 8, !tbaa !9
  %17 = getelementptr inbounds nuw [2 x [2 x double]], ptr %29, i64 0, i64 %indvars.iv.i, i64 %indvars.iv97.i
  %18 = load double, ptr %17, align 8, !tbaa !9
  %19 = getelementptr inbounds nuw [2 x [2 x double]], ptr %29, i64 0, i64 %indvars.iv.i, i64 %indvars.iv94.i
  %20 = load double, ptr %19, align 8, !tbaa !9
  %21 = fmul double %18, %20
  %22 = tail call double @llvm.fmuladd.f64(double %14, double %16, double %21)
  %23 = fadd double %.16372.us.us.i, %22
  %24 = fneg double %16
  %25 = fmul double %18, %24
  %26 = tail call double @llvm.fmuladd.f64(double %14, double %20, double %25)
  %27 = fadd double %.16173.us.us.i, %26
  br i1 %12, label %11, label %10

.preheader.us.us.i:                               ; preds = %10, %.preheader68.us.us.i
  %indvars.iv91.i = phi i64 [ %indvars.iv.next92.i, %10 ], [ 0, %.preheader68.us.us.i ]
  %.06076.us.us.i = phi double [ %27, %10 ], [ 0.000000e+00, %.preheader68.us.us.i ]
  %.06275.us.us.i = phi double [ %23, %10 ], [ 0.000000e+00, %.preheader68.us.us.i ]
  %28 = getelementptr inbounds nuw %struct.ComplexMatrix2, ptr %1, i64 %indvars.iv91.i
  %29 = getelementptr inbounds nuw i8, ptr %28, i64 32
  br label %11

30:                                               ; preds = %._crit_edge.us.us.i
  br i1 %.not84.i, label %.preheader68.us.us.i, label %.critedge.split.us.us.i

._crit_edge.us.us.i:                              ; preds = %10
  %31 = icmp eq i64 %indvars.iv97.i, %indvars.iv94.i
  %32 = uitofp i1 %31 to double
  %33 = fsub double %23, %32
  %34 = fmul double %33, %33
  %35 = tail call double @llvm.fmuladd.f64(double %27, double %27, double %34)
  %36 = fcmp ule double %35, 1.000000e-26
  br i1 %36, label %30, label %.loopexit

.critedge.split.us.us.i:                          ; preds = %30
  br i1 %.not85.i, label %.preheader69.us.i, label %QuESTAssert.exit

.loopexit:                                        ; preds = %._crit_edge.us.us.i, %validateOneQubitKrausMapDimensions.exit
  tail call void @invalidQuESTInputError(ptr noundef nonnull @.str.54, ptr noundef %3)
  br label %QuESTAssert.exit

QuESTAssert.exit:                                 ; preds = %.critedge.split.us.us.i, %.loopexit
  ret void
}